target datalayout = "e-m:e-p270:32:32-p271:32:32-p272:64:64-i64:64-i128:128-f80:128-n8:16:32:64-S128"
target triple = "x86_64-pc-linux-gnu"

%struct.SDL_CameraSpec = type { i32, i32, i32, i32, i32, i32 }
%struct.CameraFormatAddData = type { ptr, i32, i32 }

; Function Attrs: nounwind uwtable
define hidden zeroext i1 @SDL_AddCameraFormat(ptr noundef %0, i32 noundef %1, i32 noundef %2, i32 noundef %3, i32 noundef %4, i32 noundef %5, i32 noundef %6) #0 {
  %8 = alloca i1, align 1
  %9 = alloca ptr, align 8
  %10 = alloca i32, align 4
  %11 = alloca i32, align 4
  %12 = alloca i32, align 4
  %13 = alloca i32, align 4
  %14 = alloca i32, align 4
  %15 = alloca i32, align 4
  %16 = alloca i32, align 4
  %17 = alloca ptr, align 8
  %18 = alloca i32, align 4
  %19 = alloca ptr, align 8
  store ptr %0, ptr %9, align 8
  store i32 %1, ptr %10, align 4
  store i32 %2, ptr %11, align 4
  store i32 %3, ptr %12, align 4
  store i32 %4, ptr %13, align 4
  store i32 %5, ptr %14, align 4
  store i32 %6, ptr %15, align 4
  br label %20

20:                                               ; preds = %7
  br label %21

21:                                               ; preds = %20
  %22 = load ptr, ptr %9, align 8
  %23 = getelementptr inbounds nuw %struct.CameraFormatAddData, ptr %22, i32 0, i32 2
  %24 = load i32, ptr %23, align 4
  %25 = load ptr, ptr %9, align 8
  %26 = getelementptr inbounds nuw %struct.CameraFormatAddData, ptr %25, i32 0, i32 1
  %27 = load i32, ptr %26, align 8
  %28 = icmp sle i32 %24, %27
  br i1 %28, label %29, label %62

29:                                               ; preds = %21
  call void @llvm.lifetime.start.p0(i64 4, ptr %16) #7
  %30 = load ptr, ptr %9, align 8
  %31 = getelementptr inbounds nuw %struct.CameraFormatAddData, ptr %30, i32 0, i32 2
  %32 = load i32, ptr %31, align 4
  %33 = icmp ne i32 %32, 0
  br i1 %33, label %34, label %39

34:                                               ; preds = %29
  %35 = load ptr, ptr %9, align 8
  %36 = getelementptr inbounds nuw %struct.CameraFormatAddData, ptr %35, i32 0, i32 2
  %37 = load i32, ptr %36, align 4
  %38 = mul nsw i32 %37, 2
  br label %40

39:                                               ; preds = %29
  br label %40

40:                                               ; preds = %39, %34
  %41 = phi i32 [ %38, %34 ], [ 16, %39 ]
  store i32 %41, ptr %16, align 4
  call void @llvm.lifetime.start.p0(i64 8, ptr %17) #7
  %42 = load ptr, ptr %9, align 8
  %43 = getelementptr inbounds nuw %struct.CameraFormatAddData, ptr %42, i32 0, i32 0
  %44 = load ptr, ptr %43, align 8
  %45 = load i32, ptr %16, align 4
  %46 = sext i32 %45 to i64
  %47 = mul i64 24, %46
  %48 = call ptr @SDL_realloc_REAL(ptr noundef %44, i64 noundef %47) #8
  store ptr %48, ptr %17, align 8
  %49 = load ptr, ptr %17, align 8
  %50 = icmp ne ptr %49, null
  br i1 %50, label %52, label %51

51:                                               ; preds = %40
  store i1 false, ptr %8, align 1
  store i32 1, ptr %18, align 4
  br label %59

52:                                               ; preds = %40
  %53 = load ptr, ptr %17, align 8
  %54 = load ptr, ptr %9, align 8
  %55 = getelementptr inbounds nuw %struct.CameraFormatAddData, ptr %54, i32 0, i32 0
  store ptr %53, ptr %55, align 8
  %56 = load i32, ptr %16, align 4
  %57 = load ptr, ptr %9, align 8
  %58 = getelementptr inbounds nuw %struct.CameraFormatAddData, ptr %57, i32 0, i32 2
  store i32 %56, ptr %58, align 4
  store i32 0, ptr %18, align 4
  br label %59

59:                                               ; preds = %52, %51
  call void @llvm.lifetime.end.p0(i64 8, ptr %17) #7
  call void @llvm.lifetime.end.p0(i64 4, ptr %16) #7
  %60 = load i32, ptr %18, align 4
  switch i32 %60, label %95 [
    i32 0, label %61
    i32 1, label %93
  ]

61:                                               ; preds = %59
  br label %62

62:                                               ; preds = %61, %21
  call void @llvm.lifetime.start.p0(i64 8, ptr %19) #7
  %63 = load ptr, ptr %9, align 8
  %64 = getelementptr inbounds nuw %struct.CameraFormatAddData, ptr %63, i32 0, i32 0
  %65 = load ptr, ptr %64, align 8
  %66 = load ptr, ptr %9, align 8
  %67 = getelementptr inbounds nuw %struct.CameraFormatAddData, ptr %66, i32 0, i32 1
  %68 = load i32, ptr %67, align 8
  %69 = sext i32 %68 to i64
  %70 = getelementptr inbounds %struct.SDL_CameraSpec, ptr %65, i64 %69
  store ptr %70, ptr %19, align 8
  %71 = load i32, ptr %10, align 4
  %72 = load ptr, ptr %19, align 8
  %73 = getelementptr inbounds nuw %struct.SDL_CameraSpec, ptr %72, i32 0, i32 0
  store i32 %71, ptr %73, align 4
  %74 = load i32, ptr %11, align 4
  %75 = load ptr, ptr %19, align 8
  %76 = getelementptr inbounds nuw %struct.SDL_CameraSpec, ptr %75, i32 0, i32 1
  store i32 %74, ptr %76, align 4
  %77 = load i32, ptr %12, align 4
  %78 = load ptr, ptr %19, align 8
  %79 = getelementptr inbounds nuw %struct.SDL_CameraSpec, ptr %78, i32 0, i32 2
  store i32 %77, ptr %79, align 4
  %80 = load i32, ptr %13, align 4
  %81 = load ptr, ptr %19, align 8
  %82 = getelementptr inbounds nuw %struct.SDL_CameraSpec, ptr %81, i32 0, i32 3
  store i32 %80, ptr %82, align 4
  %83 = load i32, ptr %14, align 4
  %84 = load ptr, ptr %19, align 8
  %85 = getelementptr inbounds nuw %struct.SDL_CameraSpec, ptr %84, i32 0, i32 4
  store i32 %83, ptr %85, align 4
  %86 = load i32, ptr %15, align 4
  %87 = load ptr, ptr %19, align 8
  %88 = getelementptr inbounds nuw %struct.SDL_CameraSpec, ptr %87, i32 0, i32 5
  store i32 %86, ptr %88, align 4
  %89 = load ptr, ptr %9, align 8
  %90 = getelementptr inbounds nuw %struct.CameraFormatAddData, ptr %89, i32 0, i32 1
  %91 = load i32, ptr %90, align 8
  %92 = add nsw i32 %91, 1
  store i32 %92, ptr %90, align 8
  store i1 true, ptr %8, align 1
  store i32 1, ptr %18, align 4
  call void @llvm.lifetime.end.p0(i64 8, ptr %19) #7
  br label %93

93:                                               ; preds = %62, %59
  %94 = load i1, ptr %8, align 1
  ret i1 %94

95:                                               ; preds = %59
  unreachable
}