; Function Attrs: nounwind uwtable
define hidden noundef zeroext i1 @SDL_AddCameraFormat(ptr noundef captures(none) %0, i32 noundef %1, i32 noundef %2, i32 noundef %3, i32 noundef %4, i32 noundef %5, i32 noundef %6) local_unnamed_addr #1 {
  %8 = getelementptr inbounds nuw i8, ptr %0, i64 12
  %9 = load i32, ptr %8, align 4
  %10 = getelementptr inbounds nuw i8, ptr %0, i64 8
  %11 = load i32, ptr %10, align 8
  %.not = icmp sgt i32 %9, %11
  %.pre = load ptr, ptr %0, align 8
  br i1 %.not, label %17, label %12

12:                                               ; preds = %7
  %.not29 = icmp eq i32 %9, 0
  %13 = shl nsw i32 %9, 1
  %spec.select = select i1 %.not29, i32 16, i32 %13
  %14 = sext i32 %spec.select to i64
  %15 = mul nsw i64 %14, 24
  %16 = tail call ptr @SDL_realloc_REAL(ptr noundef %.pre, i64 noundef %15) #12
  %.not30 = icmp eq ptr %16, null
  br i1 %.not30, label %29, label %.thread

.thread:                                          ; preds = %12
  store ptr %16, ptr %0, align 8
  store i32 %spec.select, ptr %8, align 4
  %.pre32 = load i32, ptr %10, align 8
  br label %17

17:                                               ; preds = %.thread, %7
  %18 = phi i32 [ %.pre32, %.thread ], [ %11, %7 ]
  %19 = phi ptr [ %16, %.thread ], [ %.pre, %7 ]
  %20 = sext i32 %18 to i64
  %21 = getelementptr inbounds %struct.SDL_CameraSpec, ptr %19, i64 %20
  store i32 %1, ptr %21, align 4
  %22 = getelementptr inbounds nuw i8, ptr %21, i64 4
  store i32 %2, ptr %22, align 4
  %23 = getelementptr inbounds nuw i8, ptr %21, i64 8
  store i32 %3, ptr %23, align 4
  %24 = getelementptr inbounds nuw i8, ptr %21, i64 12
  store i32 %4, ptr %24, align 4
  %25 = getelementptr inbounds nuw i8, ptr %21, i64 16
  store i32 %5, ptr %25, align 4
  %26 = getelementptr inbounds nuw i8, ptr %21, i64 20
  store i32 %6, ptr %26, align 4
  %27 = load i32, ptr %10, align 8
  %28 = add nsw i32 %27, 1
  store i32 %28, ptr %10, align 8
  br label %29

29:                                               ; preds = %12, %17
  %.1 = phi i1 [ true, %17 ], [ false, %12 ]
  ret i1 %.1
}